; Function Attrs: mustprogress uwtable
define noundef signext i8 @_ZN6icu_757UVector9removeAllERKS0_(ptr nocapture noundef nonnull align 8 dereferenceable(40) %this, ptr nocapture noundef nonnull readonly align 8 dereferenceable(40) %other) local_unnamed_addr #1 align 2 {
entry:
  %count.i = getelementptr inbounds i8, ptr %other, i64 8
  %0 = load i32, ptr %count.i, align 8
  %cmp13 = icmp sgt i32 %0, 0
  br i1 %cmp13, label %for.body.lr.ph, label %for.end

for.body.lr.ph:                                   ; preds = %entry
  %elements = getelementptr inbounds i8, ptr %other, i64 16
  %comparer.i = getelementptr inbounds i8, ptr %this, i64 32
  %count.i5 = getelementptr inbounds i8, ptr %this, i64 8
  %elements.i = getelementptr inbounds i8, ptr %this, i64 16
  %deleter.i = getelementptr inbounds i8, ptr %this, i64 24
  br label %for.body

for.body:                                         ; preds = %for.body.lr.ph, %for.inc
  %indvars.iv = phi i64 [ 0, %for.body.lr.ph ], [ %indvars.iv.next, %for.inc ]
  %changed.015 = phi i8 [ 0, %for.body.lr.ph ], [ %changed.1, %for.inc ]
  %1 = load ptr, ptr %elements, align 8
  %arrayidx = getelementptr inbounds %union.UElement, ptr %1, i64 %indvars.iv
  %agg.tmp.sroa.0.0.copyload = load ptr, ptr %arrayidx, align 8
  %2 = load ptr, ptr %comparer.i, align 8
  %cmp.not.i = icmp eq ptr %2, null
  br i1 %cmp.not.i, label %for.cond9.preheader.i, label %for.cond.preheader.i

for.cond.preheader.i:                             ; preds = %for.body
  %3 = load i32, ptr %count.i5, align 8
  %cmp212.i = icmp sgt i32 %3, 0
  br i1 %cmp212.i, label %for.body.i, label %for.inc

for.cond9.preheader.i:                            ; preds = %for.body
  %4 = ptrtoint ptr %agg.tmp.sroa.0.0.copyload to i64
  %key.sroa.0.0.extract.trunc.i = trunc i64 %4 to i32
  %5 = load i32, ptr %count.i5, align 8
  %cmp1115.i = icmp sgt i32 %5, 0
  br i1 %cmp1115.i, label %for.body12.lr.ph.i, label %for.inc

for.body12.lr.ph.i:                               ; preds = %for.cond9.preheader.i
  %6 = load ptr, ptr %elements.i, align 8
  %wide.trip.count32.i = zext nneg i32 %5 to i64
  br label %for.body12.us.i

for.body12.us.i:                                  ; preds = %for.inc29.us.i, %for.body12.lr.ph.i
  %indvars.iv29.i = phi i64 [ %indvars.iv.next30.i, %for.inc29.us.i ], [ 0, %for.body12.lr.ph.i ]
  %arrayidx24.us.i = getelementptr inbounds %union.UElement, ptr %6, i64 %indvars.iv29.i
  %7 = load i32, ptr %arrayidx24.us.i, align 8
  %cmp25.us.i = icmp eq i32 %7, %key.sroa.0.0.extract.trunc.i
  br i1 %cmp25.us.i, label %_ZNK6icu_757UVector7indexOfE8UElementia.exit, label %for.inc29.us.i

for.inc29.us.i:                                   ; preds = %for.body12.us.i
  %indvars.iv.next30.i = add nuw nsw i64 %indvars.iv29.i, 1
  %exitcond33.not.i = icmp eq i64 %indvars.iv.next30.i, %wide.trip.count32.i
  br i1 %exitcond33.not.i, label %for.inc, label %for.body12.us.i, !llvm.loop !14

for.body.i:                                       ; preds = %for.cond.preheader.i, %for.inc.i
  %indvars.iv.i = phi i64 [ %indvars.iv.next.i, %for.inc.i ], [ 0, %for.cond.preheader.i ]
  %8 = load ptr, ptr %comparer.i, align 8
  %9 = load ptr, ptr %elements.i, align 8
  %arrayidx.i = getelementptr inbounds %union.UElement, ptr %9, i64 %indvars.iv.i
  %agg.tmp4.sroa.0.0.copyload.i = load ptr, ptr %arrayidx.i, align 8
  %call.i = tail call noundef signext i8 %8(ptr %agg.tmp.sroa.0.0.copyload, ptr %agg.tmp4.sroa.0.0.copyload.i)
  %tobool.not.i = icmp eq i8 %call.i, 0
  br i1 %tobool.not.i, label %for.inc.i, label %_ZNK6icu_757UVector7indexOfE8UElementia.exit

for.inc.i:                                        ; preds = %for.body.i
  %indvars.iv.next.i = add nuw nsw i64 %indvars.iv.i, 1
  %10 = load i32, ptr %count.i5, align 8
  %11 = sext i32 %10 to i64
  %cmp2.i = icmp slt i64 %indvars.iv.next.i, %11
  br i1 %cmp2.i, label %for.body.i, label %for.inc, !llvm.loop !17

_ZNK6icu_757UVector7indexOfE8UElementia.exit:     ; preds = %for.body.i, %for.body12.us.i
  %retval.0.i.in = phi i64 [ %indvars.iv29.i, %for.body12.us.i ], [ %indvars.iv.i, %for.body.i ]
  %retval.0.i = trunc i64 %retval.0.i.in to i32
  %cmp3 = icmp sgt i32 %retval.0.i, -1
  br i1 %cmp3, label %land.lhs.true.i.i, label %for.inc

land.lhs.true.i.i:                                ; preds = %_ZNK6icu_757UVector7indexOfE8UElementia.exit
  %12 = load i32, ptr %count.i5, align 8
  %cmp2.i.i = icmp sgt i32 %12, %retval.0.i
  br i1 %cmp2.i.i, label %if.then.i.i, label %for.inc

if.then.i.i:                                      ; preds = %land.lhs.true.i.i
  %13 = load ptr, ptr %elements.i, align 8
  %idxprom.i.i = and i64 %retval.0.i.in, 2147483647
  %arrayidx.i.i = getelementptr inbounds %union.UElement, ptr %13, i64 %idxprom.i.i
  %14 = load ptr, ptr %arrayidx.i.i, align 8
  %sub7.i.i = add nsw i32 %12, -1
  %cmp48.i.i = icmp ugt i32 %sub7.i.i, %retval.0.i
  br i1 %cmp48.i.i, label %for.body.i.i, label %_ZN6icu_757UVector15orphanElementAtEi.exit.i

for.body.i.i:                                     ; preds = %if.then.i.i, %for.body.i.i
  %indvars.iv.i.i = phi i64 [ %indvars.iv.next.i.i, %for.body.i.i ], [ %idxprom.i.i, %if.then.i.i ]
  %15 = load ptr, ptr %elements.i, align 8
  %indvars.iv.next.i.i = add nuw nsw i64 %indvars.iv.i.i, 1
  %arrayidx7.i.i = getelementptr inbounds %union.UElement, ptr %15, i64 %indvars.iv.next.i.i
  %arrayidx10.i.i = getelementptr inbounds %union.UElement, ptr %15, i64 %indvars.iv.i.i
  %16 = load i64, ptr %arrayidx7.i.i, align 8
  store i64 %16, ptr %arrayidx10.i.i, align 8
  %17 = load i32, ptr %count.i5, align 8
  %sub.i.i = add nsw i32 %17, -1
  %18 = trunc i64 %indvars.iv.next.i.i to i32
  %cmp4.i.i = icmp sgt i32 %sub.i.i, %18
  br i1 %cmp4.i.i, label %for.body.i.i, label %_ZN6icu_757UVector15orphanElementAtEi.exit.i, !llvm.loop !8

_ZN6icu_757UVector15orphanElementAtEi.exit.i:     ; preds = %for.body.i.i, %if.then.i.i
  %sub.lcssa.i.i = phi i32 [ %sub7.i.i, %if.then.i.i ], [ %sub.i.i, %for.body.i.i ]
  store i32 %sub.lcssa.i.i, ptr %count.i5, align 8
  %cmp.not.i6 = icmp eq ptr %14, null
  br i1 %cmp.not.i6, label %for.inc, label %land.lhs.true.i

land.lhs.true.i:                                  ; preds = %_ZN6icu_757UVector15orphanElementAtEi.exit.i
  %19 = load ptr, ptr %deleter.i, align 8
  %cmp2.not.i = icmp eq ptr %19, null
  br i1 %cmp2.not.i, label %for.inc, label %if.then.i

if.then.i:                                        ; preds = %land.lhs.true.i
  tail call void %19(ptr noundef nonnull %14)
  br label %for.inc

for.inc:                                          ; preds = %for.inc.i, %for.inc29.us.i, %for.cond.preheader.i, %for.cond9.preheader.i, %if.then.i, %land.lhs.true.i, %_ZN6icu_757UVector15orphanElementAtEi.exit.i, %land.lhs.true.i.i, %_ZNK6icu_757UVector7indexOfE8UElementia.exit
  %changed.1 = phi i8 [ %changed.015, %_ZNK6icu_757UVector7indexOfE8UElementia.exit ], [ 1, %land.lhs.true.i.i ], [ 1, %_ZN6icu_757UVector15orphanElementAtEi.exit.i ], [ 1, %land.lhs.true.i ], [ 1, %if.then.i ], [ %changed.015, %for.cond9.preheader.i ], [ %changed.015, %for.cond.preheader.i ], [ %changed.015, %for.inc29.us.i ], [ %changed.015, %for.inc.i ]
  %indvars.iv.next = add nuw nsw i64 %indvars.iv, 1
  %20 = load i32, ptr %count.i, align 8
  %21 = sext i32 %20 to i64
  %cmp = icmp slt i64 %indvars.iv.next, %21
  br i1 %cmp, label %for.body, label %for.end, !llvm.loop !20

for.end:                                          ; preds = %for.inc, %entry
  %changed.0.lcssa = phi i8 [ 0, %entry ], [ %changed.1, %for.inc ]
  ret i8 %changed.0.lcssa
}